target datalayout = "e-m:e-p270:32:32-p271:32:32-p272:64:64-i64:64-i128:128-f80:128-n8:16:32:64-S128"
target triple = "x86_64-pc-linux-gnu"

%struct.QArrayData = type { %"class.QtPrivate::RefCount", i32, i32, i64 }
%"class.QtPrivate::RefCount" = type { %class.QBasicAtomicInteger }
%class.QBasicAtomicInteger = type { %"struct.std::atomic" }
%"struct.std::atomic" = type { %"struct.std::__atomic_base" }
%"struct.std::__atomic_base" = type { i32 }
%struct.QHashData = type <{ ptr, ptr, %"class.QtPrivate::RefCount", i32, i32, i16, i16, i32, i32, i32, [4 x i8] }>
%class.QHash = type { %union.anon.202 }
%union.anon.202 = type { ptr }
%class.QVector = type { ptr }
%struct.QHashNode = type { ptr, i32, ptr, %class.QVector }
%"class.QHash<RasterModel *, QVector<Patch>>::const_iterator" = type { ptr }

; Function Attrs: mustprogress nounwind uwtable
define linkonce_odr noundef ptr @_ZN5QHashIP11RasterModel7QVectorI5PatchEE8concreteEPN9QHashData4NodeE(ptr noundef %0) #4 comdat align 2 {
  %2 = alloca ptr, align 8
  store ptr %0, ptr %2, align 8
  %3 = load ptr, ptr %2, align 8
  ret ptr %3
}

; Function Attrs: mustprogress nounwind uwtable
define linkonce_odr void @_ZN5QHashIP11RasterModel7QVectorI5PatchEE14const_iteratorC2EPv(ptr noundef nonnull align 8 dereferenceable(8) %0, ptr noundef %1) unnamed_addr #4 comdat align 2 {
  %3 = alloca ptr, align 8
  %4 = alloca ptr, align 8
  store ptr %0, ptr %3, align 8
  store ptr %1, ptr %4, align 8
  %5 = load ptr, ptr %3, align 8
  %6 = getelementptr inbounds %"class.QHash<RasterModel *, QVector<Patch>>::const_iterator", ptr %5, i32 0, i32 0
  %7 = load ptr, ptr %4, align 8
  store ptr %7, ptr %6, align 8
  ret void
}

; Function Attrs: mustprogress nounwind uwtable
define linkonce_odr noundef ptr @_ZN9QHashData9firstNodeEv(ptr noundef nonnull align 8 dereferenceable(44) %0) #4 comdat align 2 {
  %2 = alloca ptr, align 8
  %3 = alloca ptr, align 8
  %4 = alloca ptr, align 8
  %5 = alloca ptr, align 8
  %6 = alloca i32, align 4
  store ptr %0, ptr %3, align 8
  %7 = load ptr, ptr %3, align 8
  store ptr %7, ptr %4, align 8
  %8 = getelementptr inbounds %struct.QHashData, ptr %7, i32 0, i32 1
  %9 = load ptr, ptr %8, align 8
  store ptr %9, ptr %5, align 8
  %10 = getelementptr inbounds %struct.QHashData, ptr %7, i32 0, i32 7
  %11 = load i32, ptr %10, align 8
  store i32 %11, ptr %6, align 4
  br label %12

12:                                               ; preds = %24, %1
  %13 = load i32, ptr %6, align 4
  %14 = add nsw i32 %13, -1
  store i32 %14, ptr %6, align 4
  %15 = icmp ne i32 %13, 0
  br i1 %15, label %16, label %27

16:                                               ; preds = %12
  %17 = load ptr, ptr %5, align 8
  %18 = load ptr, ptr %17, align 8
  %19 = load ptr, ptr %4, align 8
  %20 = icmp ne ptr %18, %19
  br i1 %20, label %21, label %24

21:                                               ; preds = %16
  %22 = load ptr, ptr %5, align 8
  %23 = load ptr, ptr %22, align 8
  store ptr %23, ptr %2, align 8
  br label %29

24:                                               ; preds = %16
  %25 = load ptr, ptr %5, align 8
  %26 = getelementptr inbounds ptr, ptr %25, i32 1
  store ptr %26, ptr %5, align 8
  br label %12, !llvm.loop !209

27:                                               ; preds = %12
  %28 = load ptr, ptr %4, align 8
  store ptr %28, ptr %2, align 8
  br label %29

29:                                               ; preds = %27, %21
  %30 = load ptr, ptr %2, align 8
  ret ptr %30
}

; Function Attrs: mustprogress uwtable
define linkonce_odr noundef nonnull align 8 dereferenceable(8) ptr @_ZN5QHashIP11RasterModel7QVectorI5PatchEE14const_iteratorppEv(ptr noundef nonnull align 8 dereferenceable(8) %0) #5 comdat align 2 {
  %2 = alloca ptr, align 8
  store ptr %0, ptr %2, align 8
  %3 = load ptr, ptr %2, align 8
  %4 = getelementptr inbounds %"class.QHash<RasterModel *, QVector<Patch>>::const_iterator", ptr %3, i32 0, i32 0
  %5 = load ptr, ptr %4, align 8
  %6 = call noundef ptr @_ZN9QHashData8nextNodeEPNS_4NodeE(ptr noundef %5)
  %7 = getelementptr inbounds %"class.QHash<RasterModel *, QVector<Patch>>::const_iterator", ptr %3, i32 0, i32 0
  store ptr %6, ptr %7, align 8
  ret ptr %3
}

; Function Attrs: mustprogress nounwind uwtable
define linkonce_odr noundef i32 @_ZNK7QVectorI5PatchE4sizeEv(ptr noundef nonnull align 8 dereferenceable(8) %0) #4 comdat align 2 {
  %2 = alloca ptr, align 8
  store ptr %0, ptr %2, align 8
  %3 = load ptr, ptr %2, align 8
  %4 = getelementptr inbounds %class.QVector, ptr %3, i32 0, i32 0
  %5 = load ptr, ptr %4, align 8
  %6 = getelementptr inbounds %struct.QArrayData, ptr %5, i32 0, i32 1
  %7 = load i32, ptr %6, align 4
  ret i32 %7
}

; Function Attrs: mustprogress nounwind uwtable
define linkonce_odr noundef nonnull align 8 dereferenceable(8) ptr @_ZNK5QHashIP11RasterModel7QVectorI5PatchEE14const_iteratordeEv(ptr noundef nonnull align 8 dereferenceable(8) %0) #4 comdat align 2 {
  %2 = alloca ptr, align 8
  store ptr %0, ptr %2, align 8
  %3 = load ptr, ptr %2, align 8
  %4 = getelementptr inbounds %"class.QHash<RasterModel *, QVector<Patch>>::const_iterator", ptr %3, i32 0, i32 0
  %5 = load ptr, ptr %4, align 8
  %6 = call noundef ptr @_ZN5QHashIP11RasterModel7QVectorI5PatchEE8concreteEPN9QHashData4NodeE(ptr noundef %5)
  %7 = getelementptr inbounds %struct.QHashNode, ptr %6, i32 0, i32 3
  ret ptr %7
}

; Function Attrs: mustprogress nounwind uwtable
define linkonce_odr noundef zeroext i1 @_ZNK5QHashIP11RasterModel7QVectorI5PatchEE14const_iteratorneERKS6_(ptr noundef nonnull align 8 dereferenceable(8) %0, ptr noundef nonnull align 8 dereferenceable(8) %1) #4 comdat align 2 {
  %3 = alloca ptr, align 8
  %4 = alloca ptr, align 8
  store ptr %0, ptr %3, align 8
  store ptr %1, ptr %4, align 8
  %5 = load ptr, ptr %3, align 8
  %6 = getelementptr inbounds %"class.QHash<RasterModel *, QVector<Patch>>::const_iterator", ptr %5, i32 0, i32 0
  %7 = load ptr, ptr %6, align 8
  %8 = load ptr, ptr %4, align 8
  %9 = getelementptr inbounds %"class.QHash<RasterModel *, QVector<Patch>>::const_iterator", ptr %8, i32 0, i32 0
  %10 = load ptr, ptr %9, align 8
  %11 = icmp ne ptr %7, %10
  ret i1 %11
}

; Function Attrs: mustprogress uwtable
define linkonce_odr ptr @_ZNK5QHashIP11RasterModel7QVectorI5PatchEE3endEv(ptr noundef nonnull align 8 dereferenceable(8) %0) #5 comdat align 2 {
  %2 = alloca %"class.QHash<RasterModel *, QVector<Patch>>::const_iterator", align 8
  %3 = alloca ptr, align 8
  store ptr %0, ptr %3, align 8
  %4 = load ptr, ptr %3, align 8
  %5 = getelementptr inbounds %class.QHash, ptr %4, i32 0, i32 0
  %6 = load ptr, ptr %5, align 8
  call void @_ZN5QHashIP11RasterModel7QVectorI5PatchEE14const_iteratorC2EPv(ptr noundef nonnull align 8 dereferenceable(8) %2, ptr noundef %6)
  %7 = getelementptr inbounds %"class.QHash<RasterModel *, QVector<Patch>>::const_iterator", ptr %2, i32 0, i32 0
  %8 = load ptr, ptr %7, align 8
  ret ptr %8
}

; Function Attrs: mustprogress uwtable
define linkonce_odr ptr @_ZNK5QHashIP11RasterModel7QVectorI5PatchEE5beginEv(ptr noundef nonnull align 8 dereferenceable(8) %0) #5 comdat align 2 {
  %2 = alloca %"class.QHash<RasterModel *, QVector<Patch>>::const_iterator", align 8
  %3 = alloca ptr, align 8
  store ptr %0, ptr %3, align 8
  %4 = load ptr, ptr %3, align 8
  %5 = getelementptr inbounds %class.QHash, ptr %4, i32 0, i32 0
  %6 = load ptr, ptr %5, align 8
  %7 = call noundef ptr @_ZN9QHashData9firstNodeEv(ptr noundef nonnull align 8 dereferenceable(44) %6)
  call void @_ZN5QHashIP11RasterModel7QVectorI5PatchEE14const_iteratorC2EPv(ptr noundef nonnull align 8 dereferenceable(8) %2, ptr noundef %7)
  %8 = getelementptr inbounds %"class.QHash<RasterModel *, QVector<Patch>>::const_iterator", ptr %2, i32 0, i32 0
  %9 = load ptr, ptr %8, align 8
  ret ptr %9
}

; Function Attrs: mustprogress uwtable
define noundef i32 @_ZN25FilterImgPatchParamPlugin17computePatchCountERK5QHashIP11RasterModel7QVectorI5PatchEE(ptr noundef nonnull align 8 dereferenceable(88) %0, ptr noundef nonnull align 8 dereferenceable(8) %1) #5 align 2 {
  %3 = alloca ptr, align 8
  %4 = alloca ptr, align 8
  %5 = alloca i32, align 4
  %6 = alloca ptr, align 8
  %7 = alloca %"class.QHash<RasterModel *, QVector<Patch>>::const_iterator", align 8
  %8 = alloca %"class.QHash<RasterModel *, QVector<Patch>>::const_iterator", align 8
  %9 = alloca ptr, align 8
  store ptr %0, ptr %3, align 8
  store ptr %1, ptr %4, align 8
  store i32 0, ptr %5, align 4
  %10 = load ptr, ptr %4, align 8
  store ptr %10, ptr %6, align 8
  %11 = load ptr, ptr %6, align 8
  %12 = call ptr @_ZNK5QHashIP11RasterModel7QVectorI5PatchEE5beginEv(ptr noundef nonnull align 8 dereferenceable(8) %11)
  %13 = getelementptr inbounds %"class.QHash<RasterModel *, QVector<Patch>>::const_iterator", ptr %7, i32 0, i32 0
  store ptr %12, ptr %13, align 8
  %14 = load ptr, ptr %6, align 8
  %15 = call ptr @_ZNK5QHashIP11RasterModel7QVectorI5PatchEE3endEv(ptr noundef nonnull align 8 dereferenceable(8) %14)
  %16 = getelementptr inbounds %"class.QHash<RasterModel *, QVector<Patch>>::const_iterator", ptr %8, i32 0, i32 0
  store ptr %15, ptr %16, align 8
  br label %17

17:                                               ; preds = %25, %2
  %18 = call noundef zeroext i1 @_ZNK5QHashIP11RasterModel7QVectorI5PatchEE14const_iteratorneERKS6_(ptr noundef nonnull align 8 dereferenceable(8) %7, ptr noundef nonnull align 8 dereferenceable(8) %8)
  br i1 %18, label %19, label %27

19:                                               ; preds = %17
  %20 = call noundef nonnull align 8 dereferenceable(8) ptr @_ZNK5QHashIP11RasterModel7QVectorI5PatchEE14const_iteratordeEv(ptr noundef nonnull align 8 dereferenceable(8) %7)
  store ptr %20, ptr %9, align 8
  %21 = load ptr, ptr %9, align 8
  %22 = call noundef i32 @_ZNK7QVectorI5PatchE4sizeEv(ptr noundef nonnull align 8 dereferenceable(8) %21)
  %23 = load i32, ptr %5, align 4
  %24 = add nsw i32 %23, %22
  store i32 %24, ptr %5, align 4
  br label %25

25:                                               ; preds = %19
  %26 = call noundef nonnull align 8 dereferenceable(8) ptr @_ZN5QHashIP11RasterModel7QVectorI5PatchEE14const_iteratorppEv(ptr noundef nonnull align 8 dereferenceable(8) %7)
  br label %17

27:                                               ; preds = %17
  %28 = load i32, ptr %5, align 4
  ret i32 %28
}