; Function Attrs: mustprogress uwtable
define noundef i32 @_ZN25FilterImgPatchParamPlugin17computePatchCountERK5QHashIP11RasterModel7QVectorI5PatchEE(ptr nocapture noundef nonnull readnone align 8 dereferenceable(88) %0, ptr nocapture noundef nonnull readonly align 8 dereferenceable(8) %1) local_unnamed_addr #9 align 2 {
  %3 = load ptr, ptr %1, align 8
  %4 = getelementptr inbounds i8, ptr %3, i64 32
  %5 = load i32, ptr %4, align 8
  %.not11.i.i = icmp eq i32 %5, 0
  br i1 %.not11.i.i, label %._crit_edge, label %.lr.ph.preheader.i.i

.lr.ph.preheader.i.i:                             ; preds = %2
  %6 = getelementptr inbounds i8, ptr %3, i64 8
  %7 = load ptr, ptr %6, align 8
  br label %.lr.ph.i.i

8:                                                ; preds = %.lr.ph.i.i
  %9 = add nsw i32 %.in.i.i, -1
  %10 = getelementptr inbounds i8, ptr %.0712.i.i, i64 8
  %.not.i.i = icmp eq i32 %9, 0
  br i1 %.not.i.i, label %._crit_edge, label %.lr.ph.i.i, !llvm.loop !66

.lr.ph.i.i:                                       ; preds = %8, %.lr.ph.preheader.i.i
  %.in.i.i = phi i32 [ %9, %8 ], [ %5, %.lr.ph.preheader.i.i ]
  %.0712.i.i = phi ptr [ %10, %8 ], [ %7, %.lr.ph.preheader.i.i ]
  %11 = load ptr, ptr %.0712.i.i, align 8
  %.not10.i.i = icmp eq ptr %11, %3
  br i1 %.not10.i.i, label %8, label %.lr.ph

.lr.ph:                                           ; preds = %.lr.ph.i.i, %.lr.ph
  %.010 = phi i32 [ %16, %.lr.ph ], [ 0, %.lr.ph.i.i ]
  %.sroa.05.09 = phi ptr [ %17, %.lr.ph ], [ %11, %.lr.ph.i.i ]
  %12 = getelementptr inbounds i8, ptr %.sroa.05.09, i64 24
  %13 = load ptr, ptr %12, align 8
  %14 = getelementptr inbounds i8, ptr %13, i64 4
  %15 = load i32, ptr %14, align 4
  %16 = add nsw i32 %15, %.010
  %17 = tail call noundef ptr @_ZN9QHashData8nextNodeEPNS_4NodeE(ptr noundef %.sroa.05.09)
  %.not = icmp eq ptr %17, %3
  br i1 %.not, label %._crit_edge, label %.lr.ph

._crit_edge:                                      ; preds = %8, %.lr.ph, %2
  %.0.lcssa = phi i32 [ 0, %2 ], [ %16, %.lr.ph ], [ 0, %8 ]
  ret i32 %.0.lcssa
}